; ModuleID = '30/2528.c'
source_filename = "30/2528.c"
target datalayout = "e-m:e-p270:32:32-p271:32:32-p272:64:64-i64:64-f80:128-n8:16:32:64-S128"
target triple = "x86_64-pc-linux-gnu"

@.str = private unnamed_addr constant [3 x i8] c"%d\00", align 1
@.str.1 = private unnamed_addr constant [4 x i8] c"%d\0A\00", align 1

; Function Attrs: noinline nounwind uwtable
define dso_local i32 @main() #0 {
  %1 = alloca i32, align 4
  %2 = alloca i32, align 4
  %3 = alloca i32, align 4
  %4 = alloca i32, align 4
  %5 = alloca i32, align 4
  %6 = alloca i64, align 8
  store i32 0, i32* %1, align 4
  %7 = call i32 (i8*, ...) @__isoc99_scanf(i8* getelementptr inbounds ([3 x i8], [3 x i8]* @.str, i64 0, i64 0), i32* %2)
  store i64 0, i64* %6, align 8
  store i32 1, i32* %3, align 4
  br label %8

8:                                                ; preds = %43, %0
  %9 = load i32, i32* %3, align 4
  %10 = load i32, i32* %2, align 4
  %11 = icmp sle i32 %9, %10
  br i1 %11, label %12, label %46

12:                                               ; preds = %8
  %13 = load i32, i32* %3, align 4
  %14 = icmp sgt i32 %13, 70
  br i1 %14, label %15, label %18

15:                                               ; preds = %12
  %16 = load i32, i32* %3, align 4
  %17 = sub nsw i32 %16, 70
  store i32 %17, i32* %5, align 4
  br label %21

18:                                               ; preds = %12
  %19 = load i32, i32* %3, align 4
  %20 = sub nsw i32 70, %19
  store i32 %20, i32* %5, align 4
  br label %21

21:                                               ; preds = %18, %15
  %22 = load i32, i32* %3, align 4
  %23 = sub nsw i32 %22, 7
  store i32 %23, i32* %4, align 4
  %24 = load i32, i32* %3, align 4
  %25 = srem i32 %24, 7
  %26 = icmp ne i32 %25, 0
  br i1 %26, label %27, label %42

27:                                               ; preds = %21
  %28 = load i32, i32* %4, align 4
  %29 = srem i32 %28, 10
  %30 = icmp ne i32 %29, 0
  br i1 %30, label %31, label %42

31:                                               ; preds = %27
  %32 = load i32, i32* %3, align 4
  %33 = sdiv i32 %32, 10
  %34 = icmp ne i32 %33, 7
  br i1 %34, label %35, label %42

35:                                               ; preds = %31
  %36 = load i64, i64* %6, align 8
  %37 = load i32, i32* %3, align 4
  %38 = load i32, i32* %3, align 4
  %39 = mul nsw i32 %37, %38
  %40 = sext i32 %39 to i64
  %41 = add nsw i64 %36, %40
  store i64 %41, i64* %6, align 8
  br label %42

42:                                               ; preds = %35, %31, %27, %21
  br label %43

43:                                               ; preds = %42
  %44 = load i32, i32* %3, align 4
  %45 = add nsw i32 %44, 1
  store i32 %45, i32* %3, align 4
  br label %8

46:                                               ; preds = %8
  %47 = load i64, i64* %6, align 8
  %48 = call i32 (i8*, ...) @printf(i8* getelementptr inbounds ([4 x i8], [4 x i8]* @.str.1, i64 0, i64 0), i64 %47)
  ret i32 0
}

declare dso_local i32 @__isoc99_scanf(i8*, ...) #1

declare dso_local i32 @printf(i8*, ...) #1


!llvm.module.flags = !{!0}
!llvm.ident = !{!1}

!0 = !{i32 1, !"wchar_size", i32 4}
!1 = !{!"clang version 10.0.0-4ubuntu1 "}
